; Function Attrs: mustprogress uwtable
define noundef i64 @_ZNK5arrow9ArraySpan12GetNullCountEv(ptr noundef nonnull align 8 captures(none) dereferenceable(128) %0) local_unnamed_addr #0 align 2 {
  %2 = getelementptr inbounds nuw i8, ptr %0, i64 16
  %3 = load i64, ptr %2, align 8, !tbaa !57
  %4 = icmp eq i64 %3, -1
  br i1 %4, label %5, label %16, !prof !89

5:                                                ; preds = %1
  %6 = getelementptr inbounds nuw i8, ptr %0, i64 32
  %7 = load ptr, ptr %6, align 8, !tbaa !68
  %.not = icmp eq ptr %7, null
  br i1 %.not, label %15, label %8

8:                                                ; preds = %5
  %9 = getelementptr inbounds nuw i8, ptr %0, i64 8
  %10 = load i64, ptr %9, align 8, !tbaa !90
  %11 = getelementptr inbounds nuw i8, ptr %0, i64 24
  %12 = load i64, ptr %11, align 8, !tbaa !65
  %13 = tail call noundef i64 @_ZN5arrow8internal12CountSetBitsEPKhll(ptr noundef nonnull %7, i64 noundef %12, i64 noundef %10)
  %14 = sub nsw i64 %10, %13
  br label %15

15:                                               ; preds = %5, %8
  %.1 = phi i64 [ %14, %8 ], [ 0, %5 ]
  store i64 %.1, ptr %2, align 8, !tbaa !57
  br label %16

16:                                               ; preds = %15, %1
  %.0 = phi i64 [ %.1, %15 ], [ %3, %1 ]
  ret i64 %.0
}